target datalayout = "e-m:e-p270:32:32-p271:32:32-p272:64:64-i64:64-i128:128-f80:128-n8:16:32:64-S128"
target triple = "x86_64-pc-linux-gnu"

%class.DataRelocation.base = type { %class.Relocation.base }
%class.Relocation.base = type <{ ptr, ptr, i32 }>
%class.external_word_Relocation = type { %class.DataRelocation.base, ptr }

; Function Attrs: mustprogress nounwind uwtable
define hidden noundef ptr @_ZN24external_word_Relocation6targetEv(ptr noundef nonnull align 8 dereferenceable(32) %0) #1 align 2 {
  %2 = alloca ptr, align 8
  %3 = alloca ptr, align 8
  store ptr %0, ptr %2, align 8
  %4 = load ptr, ptr %2, align 8
  %5 = getelementptr inbounds %class.external_word_Relocation, ptr %4, i32 0, i32 1
  %6 = load ptr, ptr %5, align 8
  store ptr %6, ptr %3, align 8
  %7 = load ptr, ptr %3, align 8
  %8 = icmp eq ptr %7, null
  br i1 %8, label %9, label %11

9:                                                ; preds = %1
  %10 = call noundef ptr @_ZN10Relocation24pd_get_address_from_codeEv(ptr noundef nonnull align 8 dereferenceable(20) %4)
  store ptr %10, ptr %3, align 8
  br label %11

11:                                               ; preds = %9, %1
  %12 = load ptr, ptr %3, align 8
  ret ptr %12
}