; Function Attrs: mustprogress nounwind uwtable
define hidden noundef ptr @_ZN24external_word_Relocation6targetEv(ptr noundef nonnull align 8 dereferenceable(32) %0) local_unnamed_addr #0 align 2 {
  %2 = getelementptr inbounds i8, ptr %0, i64 24
  %3 = load ptr, ptr %2, align 8
  %4 = icmp eq ptr %3, null
  br i1 %4, label %5, label %7

5:                                                ; preds = %1
  %6 = tail call noundef ptr @_ZN10Relocation24pd_get_address_from_codeEv(ptr noundef nonnull align 8 dereferenceable(20) %0) #19
  br label %7

7:                                                ; preds = %5, %1
  %.0 = phi ptr [ %6, %5 ], [ %3, %1 ]
  ret ptr %.0
}